; Function Attrs: nounwind uwtable
define internal fastcc zeroext i8 @stbi__get_marker(ptr noundef nonnull captures(none) %0) unnamed_addr #0 {
  %2 = getelementptr inbounds nuw i8, ptr %0, i64 18472
  %3 = load i8, ptr %2, align 8
  %.not = icmp eq i8 %3, -1
  br i1 %.not, label %5, label %4

4:                                                ; preds = %1
  store i8 -1, ptr %2, align 8
  br label %stbi__get8.exit.thread

5:                                                ; preds = %1
  %6 = load ptr, ptr %0, align 8
  %7 = getelementptr inbounds nuw i8, ptr %6, i64 192
  %8 = load ptr, ptr %7, align 8
  %9 = getelementptr inbounds nuw i8, ptr %6, i64 200
  %10 = load ptr, ptr %9, align 8
  %11 = icmp ult ptr %8, %10
  br i1 %11, label %12, label %15

12:                                               ; preds = %5
  %13 = getelementptr inbounds nuw i8, ptr %8, i64 1
  store ptr %13, ptr %7, align 8
  %14 = load i8, ptr %8, align 1
  br label %stbi__get8.exit

15:                                               ; preds = %5
  %16 = getelementptr inbounds nuw i8, ptr %6, i64 48
  %17 = load i32, ptr %16, align 8
  %.not.i = icmp eq i32 %17, 0
  br i1 %.not.i, label %stbi__get8.exit.thread, label %18

18:                                               ; preds = %15
  %19 = getelementptr inbounds nuw i8, ptr %6, i64 16
  %20 = load ptr, ptr %19, align 8
  %21 = getelementptr inbounds nuw i8, ptr %6, i64 40
  %22 = load ptr, ptr %21, align 8
  %23 = getelementptr inbounds nuw i8, ptr %6, i64 56
  %24 = getelementptr inbounds nuw i8, ptr %6, i64 52
  %25 = load i32, ptr %24, align 4
  %26 = tail call i32 %20(ptr noundef %22, ptr noundef nonnull %23, i32 noundef %25) #11
  %27 = load ptr, ptr %7, align 8
  %28 = getelementptr inbounds nuw i8, ptr %6, i64 208
  %29 = load ptr, ptr %28, align 8
  %30 = ptrtoint ptr %27 to i64
  %31 = ptrtoint ptr %29 to i64
  %32 = sub i64 %30, %31
  %33 = trunc i64 %32 to i32
  %34 = getelementptr inbounds nuw i8, ptr %6, i64 184
  %35 = load i32, ptr %34, align 8
  %36 = add nsw i32 %35, %33
  store i32 %36, ptr %34, align 8
  %37 = icmp eq i32 %26, 0
  br i1 %37, label %38, label %40

38:                                               ; preds = %18
  store i32 0, ptr %16, align 8
  %39 = getelementptr inbounds nuw i8, ptr %6, i64 57
  store i8 0, ptr %23, align 1
  br label %stbi__refill_buffer.exit.i

40:                                               ; preds = %18
  %41 = sext i32 %26 to i64
  %42 = getelementptr inbounds i8, ptr %23, i64 %41
  %.pre.i = load i8, ptr %23, align 1
  br label %stbi__refill_buffer.exit.i

stbi__refill_buffer.exit.i:                       ; preds = %40, %38
  %43 = phi i8 [ 0, %38 ], [ %.pre.i, %40 ]
  %.sink.i.i = phi ptr [ %39, %38 ], [ %42, %40 ]
  store ptr %.sink.i.i, ptr %9, align 8
  %44 = getelementptr inbounds nuw i8, ptr %6, i64 57
  store ptr %44, ptr %7, align 8
  br label %stbi__get8.exit

stbi__get8.exit:                                  ; preds = %12, %stbi__refill_buffer.exit.i
  %.0.i = phi i8 [ %14, %12 ], [ %43, %stbi__refill_buffer.exit.i ]
  %.not10 = icmp eq i8 %.0.i, -1
  br i1 %.not10, label %.preheader, label %stbi__get8.exit.thread

.preheader:                                       ; preds = %stbi__get8.exit, %stbi__get8.exit16
  %45 = load ptr, ptr %0, align 8
  %46 = getelementptr inbounds nuw i8, ptr %45, i64 192
  %47 = load ptr, ptr %46, align 8
  %48 = getelementptr inbounds nuw i8, ptr %45, i64 200
  %49 = load ptr, ptr %48, align 8
  %50 = icmp ult ptr %47, %49
  br i1 %50, label %51, label %54

51:                                               ; preds = %.preheader
  %52 = getelementptr inbounds nuw i8, ptr %47, i64 1
  store ptr %52, ptr %46, align 8
  %53 = load i8, ptr %47, align 1
  br label %stbi__get8.exit16

54:                                               ; preds = %.preheader
  %55 = getelementptr inbounds nuw i8, ptr %45, i64 48
  %56 = load i32, ptr %55, align 8
  %.not.i11 = icmp eq i32 %56, 0
  br i1 %.not.i11, label %stbi__get8.exit.thread, label %57

57:                                               ; preds = %54
  %58 = getelementptr inbounds nuw i8, ptr %45, i64 16
  %59 = load ptr, ptr %58, align 8
  %60 = getelementptr inbounds nuw i8, ptr %45, i64 40
  %61 = load ptr, ptr %60, align 8
  %62 = getelementptr inbounds nuw i8, ptr %45, i64 56
  %63 = getelementptr inbounds nuw i8, ptr %45, i64 52
  %64 = load i32, ptr %63, align 4
  %65 = tail call i32 %59(ptr noundef %61, ptr noundef nonnull %62, i32 noundef %64) #11
  %66 = load ptr, ptr %46, align 8
  %67 = getelementptr inbounds nuw i8, ptr %45, i64 208
  %68 = load ptr, ptr %67, align 8
  %69 = ptrtoint ptr %66 to i64
  %70 = ptrtoint ptr %68 to i64
  %71 = sub i64 %69, %70
  %72 = trunc i64 %71 to i32
  %73 = getelementptr inbounds nuw i8, ptr %45, i64 184
  %74 = load i32, ptr %73, align 8
  %75 = add nsw i32 %74, %72
  store i32 %75, ptr %73, align 8
  %76 = icmp eq i32 %65, 0
  br i1 %76, label %77, label %79

77:                                               ; preds = %57
  store i32 0, ptr %55, align 8
  %78 = getelementptr inbounds nuw i8, ptr %45, i64 57
  store i8 0, ptr %62, align 1
  br label %stbi__refill_buffer.exit.i13

79:                                               ; preds = %57
  %80 = sext i32 %65 to i64
  %81 = getelementptr inbounds i8, ptr %62, i64 %80
  %.pre.i12 = load i8, ptr %62, align 1
  br label %stbi__refill_buffer.exit.i13

stbi__refill_buffer.exit.i13:                     ; preds = %79, %77
  %82 = phi i8 [ 0, %77 ], [ %.pre.i12, %79 ]
  %.sink.i.i14 = phi ptr [ %78, %77 ], [ %81, %79 ]
  store ptr %.sink.i.i14, ptr %48, align 8
  %83 = getelementptr inbounds nuw i8, ptr %45, i64 57
  store ptr %83, ptr %46, align 8
  br label %stbi__get8.exit16

stbi__get8.exit16:                                ; preds = %51, %stbi__refill_buffer.exit.i13
  %.0.i15 = phi i8 [ %53, %51 ], [ %82, %stbi__refill_buffer.exit.i13 ]
  %84 = icmp eq i8 %.0.i15, -1
  br i1 %84, label %.preheader, label %stbi__get8.exit.thread, !llvm.loop !53

stbi__get8.exit.thread:                           ; preds = %54, %stbi__get8.exit16, %15, %stbi__get8.exit, %4
  %.09 = phi i8 [ %3, %4 ], [ -1, %stbi__get8.exit ], [ -1, %15 ], [ 0, %54 ], [ %.0.i15, %stbi__get8.exit16 ]
  ret i8 %.09
}